#include <math.h>
#include <stdio.h>
#include <stdlib.h>
#include <string.h>

int main()
{
	int a[300],b[101]={0},i,t,n;
	scanf("%d",&n);
	for(i=0;i<n;i++)
		scanf("%d",&a[i]);
	for(i=0;i<n;i++){
		if(b[a[i]]==0){
            printf("%d",a[i]);
			b[a[i]]++;
			break;
		}
	}
	t=i+1;
	for(i=t;i<n;i++){
		if(b[a[i]]==0){
            printf(",%d",a[i]);
			b[a[i]]++;
		}
	}
	return 0;
}